(dp1
S'QBP_Q21'
p2
(S'mp'
p3
S'sequence'
p4
g2
((g3
g4
S'MSH'
((g3
S'leaf'
p5
S'MSH_1'
(t(I1
I1
tS'Field'
p6
S'ST'
S'FIELD_SEPARATOR'
NI1
t(g3
g5
S'MSH_2'
(t(I1
I1
tg6
S'ST'
S'ENCODING_CHARACTERS'
NI4
t(g3
g4
S'MSH_3'
((g3
g5
S'HD_1'
(t(I1
I1
tp7
S'Component'
p8
S'IS'
S'NAMESPACE_ID'
S'HL70300'
I20
t(g3
g5
S'HD_2'
(t(I0
I1
tp9
g8
S'ST'
S'UNIVERSAL_ID'
NI199
t(g3
g5
S'HD_3'
(tg9
g8
S'ID'
S'UNIVERSAL_ID_TYPE'
S'HL70301'
I6
tt(I1
I1
tg6
S'HD'
S'SENDING_APPLICATION'
S'HL70361'
I227
t(g3
g4
S'MSH_4'
((g3
g5
S'HD_1'
(tg7
g8
S'IS'
S'NAMESPACE_ID'
S'HL70300'
I20
t(g3
g5
S'HD_2'
(tg9
g8
S'ST'
S'UNIVERSAL_ID'
NI199
t(g3
g5
S'HD_3'
(tg9
g8
S'ID'
S'UNIVERSAL_ID_TYPE'
S'HL70301'
I6
tt(I1
I1
tg6
S'HD'
S'SENDING_FACILITY'
S'HL70362'
I227
t(g3
g4
S'MSH_5'
((g3
g5
S'HD_1'
(tg7
g8
S'IS'
S'NAMESPACE_ID'
S'HL70300'
I20
t(g3
g5
S'HD_2'
(tg9
g8
S'ST'
S'UNIVERSAL_ID'
NI199
t(g3
g5
S'HD_3'
(tg9
g8
S'ID'
S'UNIVERSAL_ID_TYPE'
S'HL70301'
I6
tt(I1
I1
tg6
S'HD'
S'RECEIVING_APPLICATION'
S'HL70361'
I227
t(g3
g4
S'MSH_6'
((g3
g5
S'HD_1'
(tg7
g8
S'IS'
S'NAMESPACE_ID'
S'HL70300'
I20
t(g3
g5
S'HD_2'
(tg9
g8
S'ST'
S'UNIVERSAL_ID'
NI199
t(g3
g5
S'HD_3'
(tg9
g8
S'ID'
S'UNIVERSAL_ID_TYPE'
S'HL70301'
I6
tt(I1
I1
tg6
S'HD'
S'RECEIVING_FACILITY'
S'HL70362'
I227
t(g3
g4
S'MSH_7'
((g3
g5
S'TS_1'
(tg7
g8
S'DTM'
S'TIME'
NI24
t(g3
g5
S'TS_2'
(tg9
g8
S'ST'
S'DEGREE_OF_PRECISION'
S'HL70529'
I1
tt(I1
I1
tg6
S'TS'
S'DATE_TIME_OF_MESSAGE'
NI26
t(g3
g5
S'MSH_8'
(t(I0
I1
tg6
S'ST'
S'SECURITY'
NI40
t(g3
g4
S'MSH_9'
((g3
g5
S'MSG_1'
(tg7
g8
S'ID'
S'MESSAGE_CODE'
S'HL70076'
I3
t(g3
g5
S'MSG_2'
(tg7
g8
S'ID'
S'TRIGGER_EVENT'
S'HL70003'
I3
t(g3
g5
S'MSG_3'
(tg7
g8
S'ID'
S'MESSAGE_STRUCTURE'
S'HL70354'
I7
tt(I1
I1
tg6
S'MSG'
S'MESSAGE_TYPE'
NI15
t(g3
g5
S'MSH_10'
(t(I1
I1
tg6
S'ST'
S'MESSAGE_CONTROL_ID'
NI20
t(g3
g4
S'MSH_11'
((g3
g5
S'PT_1'
(tg7
g8
S'ID'
S'PROCESSING_ID'
S'HL70103'
I1
t(g3
g5
S'PT_2'
(tg9
g8
S'ID'
S'PROCESSING_MODE'
S'HL70207'
I1
tt(I1
I1
tg6
S'PT'
S'PROCESSING_ID'
NI3
t(g3
g4
S'MSH_12'
((g3
g5
S'VID_1'
(tg7
g8
S'ID'
S'VERSION_ID'
S'HL70104'
I5
t(g3
g4
S'VID_2'
((g3
g5
S'CE_1'
(tg9
S'SubComponent'
p10
S'ST'
S'IDENTIFIER'
NI20
t(g3
g5
S'CE_2'
(tg9
g10
S'ST'
S'TEXT'
NI199
t(g3
g5
S'CE_3'
(tg9
g10
S'ID'
S'NAME_OF_CODING_SYSTEM'
S'HL70396'
I20
t(g3
g5
S'CE_4'
(tg9
g10
S'ST'
S'ALTERNATE_IDENTIFIER'
NI20
t(g3
g5
S'CE_5'
(tg9
g10
S'ST'
S'ALTERNATE_TEXT'
NI199
t(g3
g5
S'CE_6'
(tg9
g10
S'ID'
S'NAME_OF_ALTERNATE_CODING_SYSTEM'
S'HL70396'
I20
ttg9
g8
S'CE'
S'INTERNATIONALIZATION_CODE'
S'HL70399'
I483
t(g3
g4
S'VID_3'
((g3
g5
S'CE_1'
(tg9
g10
S'ST'
S'IDENTIFIER'
NI20
t(g3
g5
S'CE_2'
(tg9
g10
S'ST'
S'TEXT'
NI199
t(g3
g5
S'CE_3'
(tg9
g10
S'ID'
S'NAME_OF_CODING_SYSTEM'
S'HL70396'
I20
t(g3
g5
S'CE_4'
(tg9
g10
S'ST'
S'ALTERNATE_IDENTIFIER'
NI20
t(g3
g5
S'CE_5'
(tg9
g10
S'ST'
S'ALTERNATE_TEXT'
NI199
t(g3
g5
S'CE_6'
(tg9
g10
S'ID'
S'NAME_OF_ALTERNATE_CODING_SYSTEM'
S'HL70396'
I20
ttg9
g8
S'CE'
S'INTERNATIONAL_VERSION_ID'
NI483
tt(I1
I1
tg6
S'VID'
S'VERSION_ID'
NI971
t(g3
g5
S'MSH_13'
(t(I0
I1
tg6
S'NM'
S'SEQUENCE_NUMBER'
NI15
t(g3
g5
S'MSH_14'
(t(I0
I1
tg6
S'ST'
S'CONTINUATION_POINTER'
NI180
t(g3
g5
S'MSH_15'
(t(I0
I1
tg6
S'ID'
S'ACCEPT_ACKNOWLEDGMENT_TYPE'
S'HL70155'
I2
t(g3
g5
S'MSH_16'
(t(I0
I1
tg6
S'ID'
S'APPLICATION_ACKNOWLEDGMENT_TYPE'
S'HL70155'
I2
t(g3
g5
S'MSH_17'
(t(I0
I1
tg6
S'ID'
S'COUNTRY_CODE'
S'HL70399'
I3
t(g3
g5
S'MSH_18'
(t(I0
I-1
tg6
S'ID'
S'CHARACTER_SET'
S'HL70211'
I16
t(g3
g4
S'MSH_19'
((g3
g5
S'CE_1'
(tg9
g8
S'ST'
S'IDENTIFIER'
NI20
t(g3
g5
S'CE_2'
(tg9
g8
S'ST'
S'TEXT'
NI199
t(g3
g5
S'CE_3'
(tg9
g8
S'ID'
S'NAME_OF_CODING_SYSTEM'
S'HL70396'
I20
t(g3
g5
S'CE_4'
(tg9
g8
S'ST'
S'ALTERNATE_IDENTIFIER'
NI20
t(g3
g5
S'CE_5'
(tg9
g8
S'ST'
S'ALTERNATE_TEXT'
NI199
t(g3
g5
S'CE_6'
(tg9
g8
S'ID'
S'NAME_OF_ALTERNATE_CODING_SYSTEM'
S'HL70396'
I20
tt(I0
I1
tg6
S'CE'
S'PRINCIPAL_LANGUAGE_OF_MESSAGE'
NI478
t(g3
g5
S'MSH_20'
(t(I0
I1
tg6
S'ID'
S'ALTERNATE_CHARACTER_SET_HANDLING_SCHEME'
S'HL70356'
I20
t(g3
g4
S'MSH_21'
((g3
g5
S'EI_1'
(tg9
g8
S'ST'
S'ENTITY_IDENTIFIER'
NI199
t(g3
g5
S'EI_2'
(tg9
g8
S'IS'
S'NAMESPACE_ID'
S'HL70363'
I20
t(g3
g5
S'EI_3'
(tg9
g8
S'ST'
S'UNIVERSAL_ID'
NI199
t(g3
g5
S'EI_4'
(tg9
g8
S'ID'
S'UNIVERSAL_ID_TYPE'
S'HL70301'
I6
tt(I0
I-1
tg6
S'EI'
S'MESSAGE_PROFILE_IDENTIFIER'
NI427
tt(I1
I1
tS'Segment'
p11
t(g3
g4
S'SFT'
((g3
g4
S'SFT_1'
((g3
g5
S'XON_1'
(tg7
g8
S'ST'
S'ORGANIZATION_NAME'
NI50
t(g3
g5
S'XON_2'
(tg9
g8
S'IS'
S'ORGANIZATION_NAME_TYPE_CODE'
S'HL70204'
I20
t(g3
g5
S'XON_3'
(tg9
g8
S'NM'
S'ID_NUMBER'
NI4
t(g3
g5
S'XON_4'
(tg9
g8
S'NM'
S'CHECK_DIGIT'
NI1
t(g3
g5
S'XON_5'
(tg9
g8
S'ID'
S'CHECK_DIGIT_SCHEME'
S'HL70061'
I3
t(g3
g4
S'XON_6'
((g3
g5
S'HD_1'
(tg9
g10
S'IS'
S'NAMESPACE_ID'
S'HL70300'
I20
t(g3
g5
S'HD_2'
(tg9
g10
S'ST'
S'UNIVERSAL_ID'
NI199
t(g3
g5
S'HD_3'
(tg9
g10
S'ID'
S'UNIVERSAL_ID_TYPE'
S'HL70301'
I6
ttg9
g8
S'HD'
S'ASSIGNING_AUTHORITY'
S'HL70363'
I227
t(g3
g5
S'XON_7'
(tg9
g8
S'ID'
S'IDENTIFIER_TYPE_CODE'
S'HL70203'
I5
t(g3
g4
S'XON_8'
((g3
g5
S'HD_1'
(tg9
g10
S'IS'
S'NAMESPACE_ID'
S'HL70300'
I20
t(g3
g5
S'HD_2'
(tg9
g10
S'ST'
S'UNIVERSAL_ID'
NI199
t(g3
g5
S'HD_3'
(tg9
g10
S'ID'
S'UNIVERSAL_ID_TYPE'
S'HL70301'
I6
ttg9
g8
S'HD'
S'ASSIGNING_FACILITY_ID'
NI227
t(g3
g5
S'XON_9'
(tg9
g8
S'ID'
S'NAME_EEPRESENTATION_CODE'
S'HL70465'
I1
t(g3
g5
S'XON_10'
(tg9
g8
S'ST'
S'ORGANIZATION_IDENTIFIER'
NI20
tt(I1
I1
tg6
S'XON'
S'SOFTWARE_VENDOR_ORGANIZATION'
NI567
t(g3
g5
S'SFT_2'
(t(I1
I1
tg6
S'ST'
S'SOFTWARE_CERTIFIED_VERSION_OR_RELEASE_NUMBER'
NI15
t(g3
g5
S'SFT_3'
(t(I1
I1
tg6
S'ST'
S'SOFTWARE_PRODUCT_NAME'
NI20
t(g3
g5
S'SFT_4'
(t(I1
I1
tg6
S'ST'
S'SOFTWARE_BINARY_ID'
NI20
t(g3
g5
S'SFT_5'
(t(I0
I1
tg6
S'TX'
S'SOFTWARE_PRODUCT_INFORMATION'
NI1024
t(g3
g4
S'SFT_6'
((g3
g5
S'TS_1'
(tg7
g8
S'DTM'
S'TIME'
NI24
t(g3
g5
S'TS_2'
(tg9
g8
S'ST'
S'DEGREE_OF_PRECISION'
S'HL70529'
I1
tt(I0
I1
tg6
S'TS'
S'SOFTWARE_INSTALL_DATE'
NI26
tt(I0
I-1
tg11
t(g3
g4
S'QPD'
((g3
g4
S'QPD_1'
((g3
g5
S'CE_1'
(tg9
g8
S'ST'
S'IDENTIFIER'
NI20
t(g3
g5
S'CE_2'
(tg9
g8
S'ST'
S'TEXT'
NI199
t(g3
g5
S'CE_3'
(tg9
g8
S'ID'
S'NAME_OF_CODING_SYSTEM'
S'HL70396'
I20
t(g3
g5
S'CE_4'
(tg9
g8
S'ST'
S'ALTERNATE_IDENTIFIER'
NI20
t(g3
g5
S'CE_5'
(tg9
g8
S'ST'
S'ALTERNATE_TEXT'
NI199
t(g3
g5
S'CE_6'
(tg9
g8
S'ID'
S'NAME_OF_ALTERNATE_CODING_SYSTEM'
S'HL70396'
I20
tt(I1
I1
tg6
S'CE'
S'MESSAGE_QUERY_NAME'
S'HL70471'
I478
t(g3
g5
S'QPD_2'
(t(I1
I1
tg6
S'ST'
S'QUERY_TAG'
NI32
t(g3
g4
S'QPD_3'
((g3
g5
S'QIP_1'
(tg7
g8
S'ST'
S'SEGMENT_FIELD_NAME'
NI12
t(g3
g5
S'QIP_2'
(tg7
g8
S'ST'
S'VALUES'
NI199
tt(I1
I-1
tg6
S'QIP'
S'DEMOGRAPHICS_FIELDS'
NI212
t(g3
g5
S'QPD_4'
(t(I0
I1
tg6
S'NM'
S'SEARCH_CONFIDENCE_THRESHOLD'
NI16
t(g3
g5
S'QPD_5'
(t(I0
I1
tg6
S'ST'
S'ALGORITHM_NAME'
NI199
t(g3
g5
S'QPD_6'
(t(I0
I1
tg6
S'ST'
S'ALGORITHM_VERSION'
NI199
t(g3
g5
S'QPD_7'
(t(I0
I1
tg6
S'ST'
S'ALGORITHM_DESCRIPTION'
NI199
t(g3
g4
S'QPD_8'
((g3
g5
S'CX_1'
(tg9
g8
S'ST'
S'ID_NUMBER'
NI15
t(g3
g5
S'CX_2'
(tg9
g8
S'ST'
S'CHECK_DIGIT'
NI1
t(g3
g5
S'CX_3'
(tg9
g8
S'ID'
S'CHECK_DIGIT_SCHEME'
S'HL70061'
I3
t(g3
g4
S'CX_4'
((g3
g5
S'HD_1'
(tg9
g10
S'IS'
S'NAMESPACE_ID'
S'HL70300'
I20
t(g3
g5
S'HD_2'
(tg9
g10
S'ST'
S'UNIVERSAL_ID'
NI199
t(g3
g5
S'HD_3'
(tg9
g10
S'ID'
S'UNIVERSAL_ID_TYPE'
S'HL70301'
I6
ttg7
g8
S'HD'
S'ASSIGNING_AUTHORITY'
S'HL70363'
I227
t(g3
g5
S'CX_5'
(tg9
g8
S'ID'
S'IDENTIFIER_TYPE_CODE'
S'HL70203'
I5
t(g3
g4
S'CX_6'
((g3
g5
S'HD_1'
(tg9
g10
S'IS'
S'NAMESPACE_ID'
S'HL70300'
I20
t(g3
g5
S'HD_2'
(tg9
g10
S'ST'
S'UNIVERSAL_ID'
NI199
t(g3
g5
S'HD_3'
(tg9
g10
S'ID'
S'UNIVERSAL_ID_TYPE'
S'HL70301'
I6
ttg9
g8
S'HD'
S'ASSIGNING_FACILITY'
NI227
t(g3
g5
S'CX_7'
(tg9
g8
S'DT'
S'EFFECTIVE_DATE'
NI8
t(g3
g5
S'CX_8'
(tg9
g8
S'DT'
S'EXPIRATION_DATE'
NI8
t(g3
g4
S'CX_9'
((g3
g5
S'CWE_1'
(tg9
g10
S'ST'
S'IDENTIFIER'
NI20
t(g3
g5
S'CWE_2'
(tg9
g10
S'ST'
S'TEXT'
NI199
t(g3
g5
S'CWE_3'
(tg9
g10
S'ID'
S'NAME_OF_CODING_SYSTEM'
S'HL70396'
I20
t(g3
g5
S'CWE_4'
(tg9
g10
S'ST'
S'ALTERNATE_IDENTIFIER'
NI20
t(g3
g5
S'CWE_5'
(tg9
g10
S'ST'
S'ALTERNATE_TEXT'
NI199
t(g3
g5
S'CWE_6'
(tg9
g10
S'ID'
S'NAME_OF_ALTERNATE_CODING_SYSTEM'
S'HL70396'
I20
t(g3
g5
S'CWE_7'
(tg9
g10
S'ST'
S'CODING_SYSTEM_VERSION_ID'
NI10
t(g3
g5
S'CWE_8'
(tg9
g10
S'ST'
S'ALTERNATE_CODING_SYSTEM_VERSION_ID'
NI10
t(g3
g5
S'CWE_9'
(tg9
g10
S'ST'
S'ORIGINAL_TEXT'
NI199
ttg9
g8
S'CWE'
S'ASSIGNING_JURISDICTION'
NI706
t(g3
g4
S'CX_10'
((g3
g5
S'CWE_1'
(tg9
g10
S'ST'
S'IDENTIFIER'
NI20
t(g3
g5
S'CWE_2'
(tg9
g10
S'ST'
S'TEXT'
NI199
t(g3
g5
S'CWE_3'
(tg9
g10
S'ID'
S'NAME_OF_CODING_SYSTEM'
S'HL70396'
I20
t(g3
g5
S'CWE_4'
(tg9
g10
S'ST'
S'ALTERNATE_IDENTIFIER'
NI20
t(g3
g5
S'CWE_5'
(tg9
g10
S'ST'
S'ALTERNATE_TEXT'
NI199
t(g3
g5
S'CWE_6'
(tg9
g10
S'ID'
S'NAME_OF_ALTERNATE_CODING_SYSTEM'
S'HL70396'
I20
t(g3
g5
S'CWE_7'
(tg9
g10
S'ST'
S'CODING_SYSTEM_VERSION_ID'
NI10
t(g3
g5
S'CWE_8'
(tg9
g10
S'ST'
S'ALTERNATE_CODING_SYSTEM_VERSION_ID'
NI10
t(g3
g5
S'CWE_9'
(tg9
g10
S'ST'
S'ORIGINAL_TEXT'
NI199
ttg9
g8
S'CWE'
S'ASSIGNING_AGENCY_OR_DEPARTMENT'
NI705
tt(I0
I-1
tg6
S'CX'
S'WHAT_DOMAINS_RETURNED'
NI1905
tt(I1
I1
tg11
t(g3
g4
S'RCP'
((g3
g5
S'RCP_1'
(t(I0
I1
tg6
S'ID'
S'QUERY_PRIORITY'
S'HL70091'
I1
t(g3
g4
S'RCP_2'
((g3
g5
S'CQ_1'
(tg9
g8
S'NM'
S'QUANTITY'
NI16
t(g3
g4
S'CQ_2'
((g3
g5
S'CE_1'
(tg9
g10
S'ST'
S'IDENTIFIER'
NI20
t(g3
g5
S'CE_2'
(tg9
g10
S'ST'
S'TEXT'
NI199
t(g3
g5
S'CE_3'
(tg9
g10
S'ID'
S'NAME_OF_CODING_SYSTEM'
S'HL70396'
I20
t(g3
g5
S'CE_4'
(tg9
g10
S'ST'
S'ALTERNATE_IDENTIFIER'
NI20
t(g3
g5
S'CE_5'
(tg9
g10
S'ST'
S'ALTERNATE_TEXT'
NI199
t(g3
g5
S'CE_6'
(tg9
g10
S'ID'
S'NAME_OF_ALTERNATE_CODING_SYSTEM'
S'HL70396'
I20
ttg9
g8
S'CE'
S'UNITS'
NI483
tt(I0
I1
tg6
S'CQ'
S'QUANTITY_LIMITED_REQUEST'
S'HL70126'
I499
t(g3
g4
S'RCP_3'
((g3
g5
S'CE_1'
(tg9
g8
S'ST'
S'IDENTIFIER'
NI20
t(g3
g5
S'CE_2'
(tg9
g8
S'ST'
S'TEXT'
NI199
t(g3
g5
S'CE_3'
(tg9
g8
S'ID'
S'NAME_OF_CODING_SYSTEM'
S'HL70396'
I20
t(g3
g5
S'CE_4'
(tg9
g8
S'ST'
S'ALTERNATE_IDENTIFIER'
NI20
t(g3
g5
S'CE_5'
(tg9
g8
S'ST'
S'ALTERNATE_TEXT'
NI199
t(g3
g5
S'CE_6'
(tg9
g8
S'ID'
S'NAME_OF_ALTERNATE_CODING_SYSTEM'
S'HL70396'
I20
tt(I0
I1
tg6
S'CE'
S'RESPONSE_MODALITY'
S'HL70394'
I478
t(g3
g4
S'RCP_4'
((g3
g5
S'TS_1'
(tg7
g8
S'DTM'
S'TIME'
NI24
t(g3
g5
S'TS_2'
(tg9
g8
S'ST'
S'DEGREE_OF_PRECISION'
S'HL70529'
I1
tt(I0
I1
tg6
S'TS'
S'EXECUTION_AND_DELIVERY_TIME'
NI26
t(g3
g5
S'RCP_5'
(t(I0
I1
tg6
S'ID'
S'MODIFY_INDICATOR'
S'HL70395'
I1
t(g3
g4
S'RCP_6'
((g3
g5
S'SRT_1'
(tg7
g8
S'ST'
S'SORT_BY_FIELD'
NI12
t(g3
g5
S'SRT_2'
(tg9
g8
S'ID'
S'SEQUENCING'
S'HL70397'
I2
tt(I0
I-1
tg6
S'SRT'
S'SORT_BY_FIELD'
NI512
t(g3
g5
S'RCP_7'
(t(I0
I-1
tg6
S'ID'
S'SEGMENT_GROUP_INCLUSION'
NI256
tt(I1
I1
tg11
t(g3
g4
S'DSC'
((g3
g5
S'DSC_1'
(t(I1
I1
tg6
S'ST'
S'CONTINUATION_POINTER'
NI180
t(g3
g5
S'DSC_2'
(t(I0
I1
tg6
S'ID'
S'CONTINUATION_STYLE'
S'HL70398'
I1
tt(I0
I1
tg11
tttp12
s.